target datalayout = "e-m:e-p270:32:32-p271:32:32-p272:64:64-i64:64-i128:128-f80:128-n8:16:32:64-S128"
target triple = "x86_64-pc-linux-gnu"

; Function Attrs: mustprogress nounwind uwtable
define void @_Z13gmx_mat4_copyPA4_fS0_(ptr noundef %0, ptr noundef %1) #0 {
  %3 = alloca ptr, align 8
  %4 = alloca ptr, align 8
  %5 = alloca i32, align 4
  %6 = alloca i32, align 4
  store ptr %0, ptr %3, align 8
  store ptr %1, ptr %4, align 8
  store i32 0, ptr %5, align 4
  br label %7

7:                                                ; preds = %34, %2
  %8 = load i32, ptr %5, align 4
  %9 = icmp slt i32 %8, 4
  br i1 %9, label %10, label %37

10:                                               ; preds = %7
  store i32 0, ptr %6, align 4
  br label %11

11:                                               ; preds = %30, %10
  %12 = load i32, ptr %6, align 4
  %13 = icmp slt i32 %12, 4
  br i1 %13, label %14, label %33

14:                                               ; preds = %11
  %15 = load ptr, ptr %3, align 8
  %16 = load i32, ptr %5, align 4
  %17 = sext i32 %16 to i64
  %18 = getelementptr inbounds [4 x float], ptr %15, i64 %17
  %19 = load i32, ptr %6, align 4
  %20 = sext i32 %19 to i64
  %21 = getelementptr inbounds [4 x float], ptr %18, i64 0, i64 %20
  %22 = load float, ptr %21, align 4
  %23 = load ptr, ptr %4, align 8
  %24 = load i32, ptr %5, align 4
  %25 = sext i32 %24 to i64
  %26 = getelementptr inbounds [4 x float], ptr %23, i64 %25
  %27 = load i32, ptr %6, align 4
  %28 = sext i32 %27 to i64
  %29 = getelementptr inbounds [4 x float], ptr %26, i64 0, i64 %28
  store float %22, ptr %29, align 4
  br label %30

30:                                               ; preds = %14
  %31 = load i32, ptr %6, align 4
  %32 = add nsw i32 %31, 1
  store i32 %32, ptr %6, align 4
  br label %11, !llvm.loop !5

33:                                               ; preds = %11
  br label %34

34:                                               ; preds = %33
  %35 = load i32, ptr %5, align 4
  %36 = add nsw i32 %35, 1
  store i32 %36, ptr %5, align 4
  br label %7, !llvm.loop !7

37:                                               ; preds = %7
  ret void
}