; Function Attrs: mustprogress nofree norecurse nosync nounwind memory(argmem: readwrite) uwtable
define void @_Z13gmx_mat4_copyPA4_fS0_(ptr nocapture noundef readonly %0, ptr nocapture noundef writeonly %1) local_unnamed_addr #0 {
  br label %.preheader

.preheader:                                       ; preds = %2, %7
  %indvars.iv14 = phi i64 [ 0, %2 ], [ %indvars.iv.next15, %7 ]
  br label %3

3:                                                ; preds = %.preheader, %3
  %indvars.iv = phi i64 [ 0, %.preheader ], [ %indvars.iv.next, %3 ]
  %4 = getelementptr inbounds [4 x float], ptr %0, i64 %indvars.iv14, i64 %indvars.iv
  %5 = load float, ptr %4, align 4
  %6 = getelementptr inbounds [4 x float], ptr %1, i64 %indvars.iv14, i64 %indvars.iv
  store float %5, ptr %6, align 4
  %indvars.iv.next = add nuw nsw i64 %indvars.iv, 1
  %exitcond.not = icmp eq i64 %indvars.iv.next, 4
  br i1 %exitcond.not, label %7, label %3, !llvm.loop !5

7:                                                ; preds = %3
  %indvars.iv.next15 = add nuw nsw i64 %indvars.iv14, 1
  %exitcond17.not = icmp eq i64 %indvars.iv.next15, 4
  br i1 %exitcond17.not, label %8, label %.preheader, !llvm.loop !7

8:                                                ; preds = %7
  ret void
}